target datalayout = "e-m:e-p270:32:32-p271:32:32-p272:64:64-i64:64-i128:128-f80:128-n8:16:32:64-S128"
target triple = "x86_64-pc-linux-gnu"

%class.colvarproxy_system = type { ptr, %"class.std::__cxx11::basic_string", double, double, i8, double, double, double, double, double, i8, i32, %"class.colvarmodule::rvector", %"class.colvarmodule::rvector", %"class.colvarmodule::rvector", %"class.colvarmodule::rvector", %"class.colvarmodule::rvector", %"class.colvarmodule::rvector" }
%"class.std::__cxx11::basic_string" = type { %"struct.std::__cxx11::basic_string<char>::_Alloc_hider", i64, %union.anon }
%"struct.std::__cxx11::basic_string<char>::_Alloc_hider" = type { ptr }
%union.anon = type { i64, [8 x i8] }
%"class.colvarmodule::rvector" = type { double, double, double }

; Function Attrs: mustprogress nounwind uwtable
define linkonce_odr void @_ZN12colvarmodule7rvector3setEd(ptr noundef nonnull align 8 dereferenceable(24) %0, double noundef %1) #0 comdat align 2 {
  %3 = alloca ptr, align 8
  %4 = alloca double, align 8
  store ptr %0, ptr %3, align 8
  store double %1, ptr %4, align 8
  %5 = load ptr, ptr %3, align 8
  %6 = load double, ptr %4, align 8
  %7 = getelementptr inbounds %"class.colvarmodule::rvector", ptr %5, i32 0, i32 2
  store double %6, ptr %7, align 8
  %8 = getelementptr inbounds %"class.colvarmodule::rvector", ptr %5, i32 0, i32 1
  store double %6, ptr %8, align 8
  %9 = getelementptr inbounds %"class.colvarmodule::rvector", ptr %5, i32 0, i32 0
  store double %6, ptr %9, align 8
  ret void
}

; Function Attrs: mustprogress uwtable
define linkonce_odr void @_ZN12colvarmodule7rvector5resetEv(ptr noundef nonnull align 8 dereferenceable(24) %0) #1 comdat align 2 {
  %2 = alloca ptr, align 8
  store ptr %0, ptr %2, align 8
  %3 = load ptr, ptr %2, align 8
  call void @_ZN12colvarmodule7rvector3setEd(ptr noundef nonnull align 8 dereferenceable(24) %3, double noundef 0.000000e+00)
  ret void
}

; Function Attrs: mustprogress uwtable
define void @_ZN18colvarproxy_system17reset_pbc_latticeEv(ptr noundef nonnull align 8 dereferenceable(256) %0) #1 align 2 {
  %2 = alloca ptr, align 8
  store ptr %0, ptr %2, align 8
  %3 = load ptr, ptr %2, align 8
  %4 = getelementptr inbounds %class.colvarproxy_system, ptr %3, i32 0, i32 12
  call void @_ZN12colvarmodule7rvector5resetEv(ptr noundef nonnull align 8 dereferenceable(24) %4)
  %5 = getelementptr inbounds %class.colvarproxy_system, ptr %3, i32 0, i32 13
  call void @_ZN12colvarmodule7rvector5resetEv(ptr noundef nonnull align 8 dereferenceable(24) %5)
  %6 = getelementptr inbounds %class.colvarproxy_system, ptr %3, i32 0, i32 14
  call void @_ZN12colvarmodule7rvector5resetEv(ptr noundef nonnull align 8 dereferenceable(24) %6)
  %7 = getelementptr inbounds %class.colvarproxy_system, ptr %3, i32 0, i32 15
  call void @_ZN12colvarmodule7rvector5resetEv(ptr noundef nonnull align 8 dereferenceable(24) %7)
  %8 = getelementptr inbounds %class.colvarproxy_system, ptr %3, i32 0, i32 16
  call void @_ZN12colvarmodule7rvector5resetEv(ptr noundef nonnull align 8 dereferenceable(24) %8)
  %9 = getelementptr inbounds %class.colvarproxy_system, ptr %3, i32 0, i32 17
  call void @_ZN12colvarmodule7rvector5resetEv(ptr noundef nonnull align 8 dereferenceable(24) %9)
  ret void
}

; Function Attrs: mustprogress uwtable
define linkonce_odr void @_ZN12colvarmodule7rvectorC2Ev(ptr noundef nonnull align 8 dereferenceable(24) %0) unnamed_addr #1 comdat align 2 {
  %2 = alloca ptr, align 8
  store ptr %0, ptr %2, align 8
  %3 = load ptr, ptr %2, align 8
  call void @_ZN12colvarmodule7rvector5resetEv(ptr noundef nonnull align 8 dereferenceable(24) %3)
  ret void
}

; Function Attrs: mustprogress uwtable
define void @_ZN18colvarproxy_systemC2Ev(ptr noundef nonnull align 8 dereferenceable(256) %0) unnamed_addr #1 align 2 personality ptr @__gxx_personality_v0 {
  %2 = alloca ptr, align 8
  %3 = alloca ptr, align 8
  %4 = alloca i32, align 4
  store ptr %0, ptr %2, align 8
  %5 = load ptr, ptr %2, align 8
  store ptr getelementptr inbounds inrange(-16, 152) ({ [21 x ptr] }, ptr @_ZTV18colvarproxy_system, i32 0, i32 0, i32 2), ptr %5, align 8
  %6 = getelementptr inbounds %class.colvarproxy_system, ptr %5, i32 0, i32 1
  call void @_ZNSt7__cxx1112basic_stringIcSt11char_traitsIcESaIcEEC1Ev(ptr noundef nonnull align 8 dereferenceable(32) %6) #9
  %7 = getelementptr inbounds %class.colvarproxy_system, ptr %5, i32 0, i32 12
  invoke void @_ZN12colvarmodule7rvectorC2Ev(ptr noundef nonnull align 8 dereferenceable(24) %7)
          to label %8 unwind label %30

8:                                                ; preds = %1
  %9 = getelementptr inbounds %class.colvarproxy_system, ptr %5, i32 0, i32 13
  invoke void @_ZN12colvarmodule7rvectorC2Ev(ptr noundef nonnull align 8 dereferenceable(24) %9)
          to label %10 unwind label %30

10:                                               ; preds = %8
  %11 = getelementptr inbounds %class.colvarproxy_system, ptr %5, i32 0, i32 14
  invoke void @_ZN12colvarmodule7rvectorC2Ev(ptr noundef nonnull align 8 dereferenceable(24) %11)
          to label %12 unwind label %30

12:                                               ; preds = %10
  %13 = getelementptr inbounds %class.colvarproxy_system, ptr %5, i32 0, i32 15
  invoke void @_ZN12colvarmodule7rvectorC2Ev(ptr noundef nonnull align 8 dereferenceable(24) %13)
          to label %14 unwind label %30

14:                                               ; preds = %12
  %15 = getelementptr inbounds %class.colvarproxy_system, ptr %5, i32 0, i32 16
  invoke void @_ZN12colvarmodule7rvectorC2Ev(ptr noundef nonnull align 8 dereferenceable(24) %15)
          to label %16 unwind label %30

16:                                               ; preds = %14
  %17 = getelementptr inbounds %class.colvarproxy_system, ptr %5, i32 0, i32 17
  invoke void @_ZN12colvarmodule7rvectorC2Ev(ptr noundef nonnull align 8 dereferenceable(24) %17)
          to label %18 unwind label %30

18:                                               ; preds = %16
  %19 = getelementptr inbounds %class.colvarproxy_system, ptr %5, i32 0, i32 8
  store double 0.000000e+00, ptr %19, align 8
  %20 = getelementptr inbounds %class.colvarproxy_system, ptr %5, i32 0, i32 9
  store double 0.000000e+00, ptr %20, align 8
  %21 = getelementptr inbounds %class.colvarproxy_system, ptr %5, i32 0, i32 7
  store double 1.000000e+00, ptr %21, align 8
  %22 = getelementptr inbounds %class.colvarproxy_system, ptr %5, i32 0, i32 6
  store double 0.000000e+00, ptr %22, align 8
  %23 = getelementptr inbounds %class.colvarproxy_system, ptr %5, i32 0, i32 5
  store double 0x3F6047710B639402, ptr %23, align 8
  %24 = getelementptr inbounds %class.colvarproxy_system, ptr %5, i32 0, i32 11
  store i32 3, ptr %24, align 4
  %25 = getelementptr inbounds %class.colvarproxy_system, ptr %5, i32 0, i32 10
  store i8 0, ptr %25, align 8
  %26 = getelementptr inbounds %class.colvarproxy_system, ptr %5, i32 0, i32 2
  store double 0.000000e+00, ptr %26, align 8
  %27 = getelementptr inbounds %class.colvarproxy_system, ptr %5, i32 0, i32 4
  store i8 0, ptr %27, align 8
  %28 = getelementptr inbounds %class.colvarproxy_system, ptr %5, i32 0, i32 3
  store double -1.000000e+00, ptr %28, align 8
  invoke void @_ZN18colvarproxy_system17reset_pbc_latticeEv(ptr noundef nonnull align 8 dereferenceable(256) %5)
          to label %29 unwind label %30

29:                                               ; preds = %18
  ret void

30:                                               ; preds = %18, %16, %14, %12, %10, %8, %1
  %31 = landingpad { ptr, i32 }
          cleanup
  %32 = extractvalue { ptr, i32 } %31, 0
  store ptr %32, ptr %3, align 8
  %33 = extractvalue { ptr, i32 } %31, 1
  store i32 %33, ptr %4, align 4
  call void @_ZNSt7__cxx1112basic_stringIcSt11char_traitsIcESaIcEED1Ev(ptr noundef nonnull align 8 dereferenceable(32) %6) #9
  br label %34

34:                                               ; preds = %30
  %35 = load ptr, ptr %3, align 8
  %36 = load i32, ptr %4, align 4
  %37 = insertvalue { ptr, i32 } poison, ptr %35, 0
  %38 = insertvalue { ptr, i32 } %37, i32 %36, 1
  resume { ptr, i32 } %38
}