; Function Attrs: mustprogress nounwind uwtable
define void @_ZN18colvarproxy_systemC2Ev(ptr noundef nonnull align 8 dereferenceable(256) %0) unnamed_addr #0 align 2 personality ptr @__gxx_personality_v0 {
  store ptr getelementptr inbounds inrange(-16, 152) ({ [21 x ptr] }, ptr @_ZTV18colvarproxy_system, i64 0, i32 0, i64 2), ptr %0, align 8
  %2 = getelementptr inbounds i8, ptr %0, i64 8
  tail call void @_ZNSt7__cxx1112basic_stringIcSt11char_traitsIcESaIcEEC1Ev(ptr noundef nonnull align 8 dereferenceable(32) %2) #12
  %3 = getelementptr inbounds i8, ptr %0, i64 112
  %4 = getelementptr inbounds i8, ptr %0, i64 88
  %5 = getelementptr inbounds i8, ptr %0, i64 80
  tail call void @llvm.memset.p0.i64(ptr noundef nonnull align 8 dereferenceable(16) %4, i8 0, i64 16, i1 false)
  store double 1.000000e+00, ptr %5, align 8
  %6 = getelementptr inbounds i8, ptr %0, i64 64
  store <2 x double> <double 0x3F6047710B639402, double 0.000000e+00>, ptr %6, align 8
  %7 = getelementptr inbounds i8, ptr %0, i64 108
  store i32 3, ptr %7, align 4
  %8 = getelementptr inbounds i8, ptr %0, i64 104
  store i8 0, ptr %8, align 8
  %9 = getelementptr inbounds i8, ptr %0, i64 40
  %10 = getelementptr inbounds i8, ptr %0, i64 56
  store i8 0, ptr %10, align 8
  store <2 x double> <double 0.000000e+00, double -1.000000e+00>, ptr %9, align 8
  tail call void @llvm.memset.p0.i64(ptr noundef nonnull align 8 dereferenceable(144) %3, i8 0, i64 144, i1 false)
  ret void
}